; Function Attrs: mustprogress uwtable
define void @_ZN10open_spiel10algorithms26OutcomeSamplingMCCFRSolver12RunIterationEPSt23mersenne_twister_engineImLm32ELm624ELm397ELm31ELm2567483615ELm11ELm4294967295ELm7ELm2636928640ELm15ELm4022730752ELm18ELm1812433253EE(ptr noundef nonnull align 8 dereferenceable(5128) %0, ptr noundef %1) local_unnamed_addr #3 align 2 personality ptr @__gxx_personality_v0 {
  %3 = alloca %"class.std::unique_ptr", align 8
  %4 = load ptr, ptr %0, align 8
  %5 = load ptr, ptr %4, align 8
  %6 = getelementptr inbounds nuw i8, ptr %5, i64 56
  %7 = load ptr, ptr %6, align 8
  %8 = tail call noundef i32 %7(ptr noundef nonnull align 8 dereferenceable(280) %4)
  %9 = icmp sgt i32 %8, 0
  br i1 %9, label %.lr.ph, label %._crit_edge

.lr.ph:                                           ; preds = %2, %_ZNSt10unique_ptrIN10open_spiel5StateESt14default_deleteIS1_EED2Ev.exit
  %.09 = phi i32 [ %21, %_ZNSt10unique_ptrIN10open_spiel5StateESt14default_deleteIS1_EED2Ev.exit ], [ 0, %2 ]
  %10 = load ptr, ptr %0, align 8
  %11 = load ptr, ptr %10, align 8
  %12 = getelementptr inbounds nuw i8, ptr %11, i64 24
  %13 = load ptr, ptr %12, align 8
  call void %13(ptr dead_on_unwind nonnull writable sret(%"class.std::unique_ptr") align 8 %3, ptr noundef nonnull align 8 dereferenceable(280) %10)
  %14 = load ptr, ptr %3, align 8
  %15 = invoke noundef double @_ZN10open_spiel10algorithms26OutcomeSamplingMCCFRSolver13SampleEpisodeEPNS_5StateEiPSt23mersenne_twister_engineImLm32ELm624ELm397ELm31ELm2567483615ELm11ELm4294967295ELm7ELm2636928640ELm15ELm4022730752ELm18ELm1812433253EEddd(ptr noundef nonnull align 8 dereferenceable(5128) %0, ptr noundef %14, i32 noundef %.09, ptr noundef %1, double noundef 1.000000e+00, double noundef 1.000000e+00, double noundef 1.000000e+00)
          to label %16 unwind label %28

16:                                               ; preds = %.lr.ph
  %17 = load ptr, ptr %3, align 8
  %.not.i = icmp eq ptr %17, null
  br i1 %.not.i, label %_ZNSt10unique_ptrIN10open_spiel5StateESt14default_deleteIS1_EED2Ev.exit, label %_ZNKSt14default_deleteIN10open_spiel5StateEEclEPS1_.exit.i

_ZNKSt14default_deleteIN10open_spiel5StateEEclEPS1_.exit.i: ; preds = %16
  %18 = load ptr, ptr %17, align 8
  %19 = getelementptr inbounds nuw i8, ptr %18, i64 8
  %20 = load ptr, ptr %19, align 8
  call void %20(ptr noundef nonnull align 8 dereferenceable(60) %17) #26
  br label %_ZNSt10unique_ptrIN10open_spiel5StateESt14default_deleteIS1_EED2Ev.exit

_ZNSt10unique_ptrIN10open_spiel5StateESt14default_deleteIS1_EED2Ev.exit: ; preds = %16, %_ZNKSt14default_deleteIN10open_spiel5StateEEclEPS1_.exit.i
  store ptr null, ptr %3, align 8
  %21 = add nuw nsw i32 %.09, 1
  %22 = load ptr, ptr %0, align 8
  %23 = load ptr, ptr %22, align 8
  %24 = getelementptr inbounds nuw i8, ptr %23, i64 56
  %25 = load ptr, ptr %24, align 8
  %26 = call noundef i32 %25(ptr noundef nonnull align 8 dereferenceable(280) %22)
  %27 = icmp slt i32 %21, %26
  br i1 %27, label %.lr.ph, label %._crit_edge, !llvm.loop !14

28:                                               ; preds = %.lr.ph
  %29 = landingpad { ptr, i32 }
          cleanup
  %30 = load ptr, ptr %3, align 8
  %.not.i6 = icmp eq ptr %30, null
  br i1 %.not.i6, label %_ZNSt10unique_ptrIN10open_spiel5StateESt14default_deleteIS1_EED2Ev.exit8, label %_ZNKSt14default_deleteIN10open_spiel5StateEEclEPS1_.exit.i7

_ZNKSt14default_deleteIN10open_spiel5StateEEclEPS1_.exit.i7: ; preds = %28
  %31 = load ptr, ptr %30, align 8
  %32 = getelementptr inbounds nuw i8, ptr %31, i64 8
  %33 = load ptr, ptr %32, align 8
  call void %33(ptr noundef nonnull align 8 dereferenceable(60) %30) #26
  br label %_ZNSt10unique_ptrIN10open_spiel5StateESt14default_deleteIS1_EED2Ev.exit8

_ZNSt10unique_ptrIN10open_spiel5StateESt14default_deleteIS1_EED2Ev.exit8: ; preds = %28, %_ZNKSt14default_deleteIN10open_spiel5StateEEclEPS1_.exit.i7
  resume { ptr, i32 } %29

._crit_edge:                                      ; preds = %_ZNSt10unique_ptrIN10open_spiel5StateESt14default_deleteIS1_EED2Ev.exit, %2
  ret void
}